target datalayout = "e-m:e-p270:32:32-p271:32:32-p272:64:64-i64:64-i128:128-f80:128-n8:16:32:64-S128"
target triple = "x86_64-unknown-linux-gnu"

; Function Attrs: inlinehint mustprogress nounwind uwtable
define linkonce_odr noundef nonnull align 8 dereferenceable(8) ptr @_ZSt3maxIdERKT_S2_S2_(ptr noundef nonnull align 8 dereferenceable(8) %__a, ptr noundef nonnull align 8 dereferenceable(8) %__b) #5 comdat {
entry:
  %retval = alloca ptr, align 8
  %__a.addr = alloca ptr, align 8
  %__b.addr = alloca ptr, align 8
  store ptr %__a, ptr %__a.addr, align 8, !tbaa !3
  store ptr %__b, ptr %__b.addr, align 8, !tbaa !3
  %0 = load ptr, ptr %__a.addr, align 8, !tbaa !3
  %1 = load double, ptr %0, align 8, !tbaa !58
  %2 = load ptr, ptr %__b.addr, align 8, !tbaa !3
  %3 = load double, ptr %2, align 8, !tbaa !58
  %cmp = fcmp olt double %1, %3
  br i1 %cmp, label %if.then, label %if.end

if.then:                                          ; preds = %entry
  %4 = load ptr, ptr %__b.addr, align 8, !tbaa !3
  store ptr %4, ptr %retval, align 8
  br label %return

if.end:                                           ; preds = %entry
  %5 = load ptr, ptr %__a.addr, align 8, !tbaa !3
  store ptr %5, ptr %retval, align 8
  br label %return

return:                                           ; preds = %if.end, %if.then
  %6 = load ptr, ptr %retval, align 8
  ret ptr %6
}

; Function Attrs: mustprogress uwtable
define noundef double @_ZNK8QuantLib27AnalyticDoubleBarrierEngine6callKIEv(ptr noundef nonnull align 8 dereferenceable(452) %this) #2 align 2 {
entry:
  %this.addr = alloca ptr, align 8
  %ref.tmp = alloca double, align 8
  %ref.tmp2 = alloca double, align 8
  store ptr %this, ptr %this.addr, align 8, !tbaa !3
  %this1 = load ptr, ptr %this.addr, align 8
  call void @llvm.lifetime.start.p0(i64 8, ptr %ref.tmp) #13
  store double 0.000000e+00, ptr %ref.tmp, align 8, !tbaa !58
  call void @llvm.lifetime.start.p0(i64 8, ptr %ref.tmp2) #13
  %call = call noundef double @_ZNK8QuantLib27AnalyticDoubleBarrierEngine17vanillaEquivalentEv(ptr noundef nonnull align 8 dereferenceable(452) %this1)
  %call3 = call noundef double @_ZNK8QuantLib27AnalyticDoubleBarrierEngine6callKOEv(ptr noundef nonnull align 8 dereferenceable(452) %this1)
  %sub = fsub double %call, %call3
  store double %sub, ptr %ref.tmp2, align 8, !tbaa !58
  %call4 = call noundef nonnull align 8 dereferenceable(8) ptr @_ZSt3maxIdERKT_S2_S2_(ptr noundef nonnull align 8 dereferenceable(8) %ref.tmp, ptr noundef nonnull align 8 dereferenceable(8) %ref.tmp2)
  %0 = load double, ptr %call4, align 8, !tbaa !58
  call void @llvm.lifetime.end.p0(i64 8, ptr %ref.tmp2) #13
  call void @llvm.lifetime.end.p0(i64 8, ptr %ref.tmp) #13
  ret double %0
}